; ModuleID = 'source-C-CXX/39/2810.c'
source_filename = "source-C-CXX/39/2810.c"
target datalayout = "e-m:e-p270:32:32-p271:32:32-p272:64:64-i64:64-f80:128-n8:16:32:64-S128"
target triple = "x86_64-pc-linux-gnu"

@.str = private unnamed_addr constant [4 x i8] c"%lf\00", align 1
@.str.1 = private unnamed_addr constant [5 x i8] c"%.4f\00", align 1
@.str.2 = private unnamed_addr constant [14 x i8] c"Invalid input\00", align 1

; Function Attrs: nofree nounwind sspstrong uwtable
define dso_local i32 @main() local_unnamed_addr #0 {
  %1 = alloca double, align 8
  %2 = alloca double, align 8
  %3 = alloca double, align 8
  %4 = alloca double, align 8
  %5 = alloca double, align 8
  %6 = bitcast double* %1 to i8*
  call void @llvm.lifetime.start.p0i8(i64 8, i8* nonnull %6) #5
  %7 = bitcast double* %2 to i8*
  call void @llvm.lifetime.start.p0i8(i64 8, i8* nonnull %7) #5
  %8 = bitcast double* %3 to i8*
  call void @llvm.lifetime.start.p0i8(i64 8, i8* nonnull %8) #5
  %9 = bitcast double* %4 to i8*
  call void @llvm.lifetime.start.p0i8(i64 8, i8* nonnull %9) #5
  %10 = bitcast double* %5 to i8*
  call void @llvm.lifetime.start.p0i8(i64 8, i8* nonnull %10) #5
  %11 = call i32 (i8*, ...) @__isoc99_scanf(i8* getelementptr inbounds ([4 x i8], [4 x i8]* @.str, i64 0, i64 0), double* nonnull %1)
  %12 = call i32 (i8*, ...) @__isoc99_scanf(i8* getelementptr inbounds ([4 x i8], [4 x i8]* @.str, i64 0, i64 0), double* nonnull %2)
  %13 = call i32 (i8*, ...) @__isoc99_scanf(i8* getelementptr inbounds ([4 x i8], [4 x i8]* @.str, i64 0, i64 0), double* nonnull %3)
  %14 = call i32 (i8*, ...) @__isoc99_scanf(i8* getelementptr inbounds ([4 x i8], [4 x i8]* @.str, i64 0, i64 0), double* nonnull %4)
  %15 = call i32 (i8*, ...) @__isoc99_scanf(i8* getelementptr inbounds ([4 x i8], [4 x i8]* @.str, i64 0, i64 0), double* nonnull %5)
  %16 = load double, double* %5, align 8, !tbaa !5
  %17 = fcmp ogt double %16, 0.000000e+00
  %18 = fcmp olt double %16, 3.600000e+02
  %19 = and i1 %17, %18
  br i1 %19, label %20, label %77

20:                                               ; preds = %0
  %21 = load double, double* %1, align 8, !tbaa !5
  %22 = load double, double* %2, align 8, !tbaa !5
  %23 = load double, double* %3, align 8, !tbaa !5
  %24 = load double, double* %4, align 8, !tbaa !5
  %25 = fadd double %21, %22
  %26 = fadd double %25, %23
  %27 = fadd double %26, %24
  %28 = fmul double %27, 5.000000e-01
  %29 = fsub double %28, %21
  %30 = fsub double %28, %22
  %31 = fmul double %29, %30
  %32 = fsub double %28, %23
  %33 = fmul double %32, %31
  %34 = fsub double %28, %24
  %35 = fmul double %34, %33
  %36 = fmul double %21, %22
  %37 = fmul double %36, %23
  %38 = fmul double %37, %24
  %39 = fdiv double %16, 3.600000e+02
  %40 = fmul double %39, 1.000000e+02
  %41 = call double @cos(double %40) #5
  %42 = fmul double %38, %41
  %43 = call double @cos(double %40) #5
  %44 = fmul double %42, %43
  %45 = fsub double %35, %44
  %46 = call double @sqrt(double %45) #5
  %47 = fcmp ogt double %46, 0.000000e+00
  br i1 %47, label %48, label %77

48:                                               ; preds = %20
  %49 = load double, double* %1, align 8, !tbaa !5
  %50 = load double, double* %2, align 8, !tbaa !5
  %51 = load double, double* %3, align 8, !tbaa !5
  %52 = load double, double* %4, align 8, !tbaa !5
  %53 = load double, double* %5, align 8, !tbaa !5
  %54 = fadd double %49, %50
  %55 = fadd double %54, %51
  %56 = fadd double %55, %52
  %57 = fmul double %56, 5.000000e-01
  %58 = fsub double %57, %49
  %59 = fsub double %57, %50
  %60 = fmul double %58, %59
  %61 = fsub double %57, %51
  %62 = fmul double %61, %60
  %63 = fsub double %57, %52
  %64 = fmul double %63, %62
  %65 = fmul double %49, %50
  %66 = fmul double %65, %51
  %67 = fmul double %66, %52
  %68 = fdiv double %53, 3.600000e+02
  %69 = fmul double %68, 1.000000e+02
  %70 = call double @cos(double %69) #5
  %71 = fmul double %67, %70
  %72 = call double @cos(double %69) #5
  %73 = fmul double %71, %72
  %74 = fsub double %64, %73
  %75 = call double @sqrt(double %74) #5
  %76 = call i32 (i8*, ...) @printf(i8* nonnull dereferenceable(1) getelementptr inbounds ([5 x i8], [5 x i8]* @.str.1, i64 0, i64 0), double %75)
  br label %79

77:                                               ; preds = %20, %0
  %78 = call i32 (i8*, ...) @printf(i8* nonnull dereferenceable(1) getelementptr inbounds ([14 x i8], [14 x i8]* @.str.2, i64 0, i64 0))
  br label %79

79:                                               ; preds = %77, %48
  call void @llvm.lifetime.end.p0i8(i64 8, i8* nonnull %10) #5
  call void @llvm.lifetime.end.p0i8(i64 8, i8* nonnull %9) #5
  call void @llvm.lifetime.end.p0i8(i64 8, i8* nonnull %8) #5
  call void @llvm.lifetime.end.p0i8(i64 8, i8* nonnull %7) #5
  call void @llvm.lifetime.end.p0i8(i64 8, i8* nonnull %6) #5
  ret i32 0
}

; Function Attrs: argmemonly mustprogress nofree nosync nounwind willreturn
declare void @llvm.lifetime.start.p0i8(i64 immarg, i8* nocapture) #1

; Function Attrs: nofree nounwind
declare noundef i32 @__isoc99_scanf(i8* nocapture noundef readonly, ...) local_unnamed_addr #2

; Function Attrs: mustprogress nofree nounwind sspstrong uwtable willreturn
define dso_local double @area(double %0, double %1, double %2, double %3, double %4) local_unnamed_addr #3 {
  %6 = fadd double %0, %1
  %7 = fadd double %6, %2
  %8 = fadd double %7, %3
  %9 = fmul double %8, 5.000000e-01
  %10 = fsub double %9, %0
  %11 = fsub double %9, %1
  %12 = fmul double %10, %11
  %13 = fsub double %9, %2
  %14 = fmul double %13, %12
  %15 = fsub double %9, %3
  %16 = fmul double %15, %14
  %17 = fmul double %0, %1
  %18 = fmul double %17, %2
  %19 = fmul double %18, %3
  %20 = fdiv double %4, 3.600000e+02
  %21 = fmul double %20, 1.000000e+02
  %22 = tail call double @cos(double %21) #5
  %23 = fmul double %19, %22
  %24 = tail call double @cos(double %21) #5
  %25 = fmul double %23, %24
  %26 = fsub double %16, %25
  %27 = tail call double @sqrt(double %26) #5
  ret double %27
}

; Function Attrs: nofree nounwind
declare noundef i32 @printf(i8* nocapture noundef readonly, ...) local_unnamed_addr #2

; Function Attrs: argmemonly mustprogress nofree nosync nounwind willreturn
declare void @llvm.lifetime.end.p0i8(i64 immarg, i8* nocapture) #1

; Function Attrs: mustprogress nofree nounwind willreturn
declare double @sqrt(double) local_unnamed_addr #4

; Function Attrs: mustprogress nofree nounwind willreturn
declare double @cos(double) local_unnamed_addr #4


!llvm.module.flags = !{!0, !1, !2, !3}
!llvm.ident = !{!4}

!0 = !{i32 1, !"wchar_size", i32 4}
!1 = !{i32 7, !"PIC Level", i32 2}
!2 = !{i32 7, !"PIE Level", i32 2}
!3 = !{i32 7, !"uwtable", i32 1}
!4 = !{!"clang version 13.0.0"}
!5 = !{!6, !6, i64 0}
!6 = !{!"double", !7, i64 0}
!7 = !{!"omnipotent char", !8, i64 0}
!8 = !{!"Simple C/C++ TBAA"}
